; Function Attrs: nounwind uwtable
define i32 @Llb_ManModelCheckAigWithHints(ptr noundef %0, ptr noundef %1) local_unnamed_addr #1 {
  %3 = alloca %struct.timespec, align 8
  %4 = alloca %struct.timespec, align 8
  %5 = alloca ptr, align 8
  store ptr null, ptr %5, align 8
  call void @llvm.lifetime.start.p0(i64 16, ptr nonnull %4)
  %6 = call i32 @clock_gettime(i32 noundef 1, ptr noundef nonnull %4) #15
  %7 = icmp slt i32 %6, 0
  br i1 %7, label %Abc_Clock.exit, label %8

8:                                                ; preds = %2
  %9 = load i64, ptr %4, align 8
  %.neg60 = mul i64 %9, -1000000
  %10 = getelementptr inbounds nuw i8, ptr %4, i64 8
  %11 = load i64, ptr %10, align 8
  %.neg = sdiv i64 %11, -1000
  %.neg61 = add i64 %.neg, %.neg60
  br label %Abc_Clock.exit

Abc_Clock.exit:                                   ; preds = %2, %8
  %.0.i.neg = phi i64 [ %.neg61, %8 ], [ 1, %2 ]
  call void @llvm.lifetime.end.p0(i64 16, ptr nonnull %4)
  %12 = getelementptr inbounds nuw i8, ptr %1, i64 12
  %13 = load i32, ptr %12, align 4
  %14 = getelementptr inbounds nuw i8, ptr %1, i64 16
  %15 = load i32, ptr %14, align 8
  %16 = add nsw i32 %15, %13
  %17 = call ptr @Llb_ManCollectHighFanoutObjects(ptr noundef %0, i32 noundef %16, i32 noundef 1)
  %18 = getelementptr i8, ptr %0, i64 32
  %.val41 = load ptr, ptr %18, align 8
  %19 = getelementptr i8, ptr %.val41, i64 4
  %.val41.val = load i32, ptr %19, align 4
  %20 = call noalias dereferenceable_or_null(16) ptr @malloc(i64 noundef 16) #17
  %21 = add i32 %.val41.val, -1
  %or.cond.i.i = icmp ult i32 %21, 15
  %spec.store.select.i.i = select i1 %or.cond.i.i, i32 16, i32 %.val41.val
  %22 = getelementptr inbounds nuw i8, ptr %20, i64 4
  store i32 %spec.store.select.i.i, ptr %20, align 8
  %.not.i.i = icmp eq i32 %spec.store.select.i.i, 0
  br i1 %.not.i.i, label %Vec_IntAlloc.exit.thread.i, label %Vec_IntAlloc.exit.i

Vec_IntAlloc.exit.thread.i:                       ; preds = %Abc_Clock.exit
  %23 = getelementptr inbounds nuw i8, ptr %20, i64 8
  store ptr null, ptr %23, align 8
  store i32 %.val41.val, ptr %22, align 4
  br label %Vec_IntStartFull.exit

Vec_IntAlloc.exit.i:                              ; preds = %Abc_Clock.exit
  %24 = sext i32 %spec.store.select.i.i to i64
  %25 = shl nsw i64 %24, 2
  %26 = call noalias ptr @malloc(i64 noundef %25) #17
  %27 = getelementptr inbounds nuw i8, ptr %20, i64 8
  store ptr %26, ptr %27, align 8
  store i32 %.val41.val, ptr %22, align 4
  %.not.i = icmp eq ptr %26, null
  br i1 %.not.i, label %Vec_IntStartFull.exit, label %28

28:                                               ; preds = %Vec_IntAlloc.exit.i
  %29 = sext i32 %.val41.val to i64
  %30 = shl nsw i64 %29, 2
  call void @llvm.memset.p0.i64(ptr nonnull align 4 %26, i8 -1, i64 %30, i1 false)
  br label %Vec_IntStartFull.exit

Vec_IntStartFull.exit:                            ; preds = %Vec_IntAlloc.exit.thread.i, %Vec_IntAlloc.exit.i, %28
  %31 = load i32, ptr %14, align 8
  %32 = getelementptr i8, ptr %17, i64 4
  %.val = load i32, ptr %32, align 4
  %33 = icmp slt i32 %31, %.val
  br i1 %33, label %.lr.ph, label %.loopexit

.lr.ph:                                           ; preds = %Vec_IntStartFull.exit
  %34 = getelementptr i8, ptr %17, i64 8
  %.val38 = load ptr, ptr %34, align 8
  %35 = getelementptr i8, ptr %20, i64 8
  %36 = sext i32 %31 to i64
  br label %37

37:                                               ; preds = %.lr.ph, %43
  %indvars.iv = phi i64 [ %36, %.lr.ph ], [ %indvars.iv.next, %43 ]
  %38 = getelementptr inbounds i32, ptr %.val38, i64 %indvars.iv
  %39 = load i32, ptr %38, align 4
  %.val40 = load ptr, ptr %35, align 8
  %40 = sext i32 %39 to i64
  %41 = getelementptr inbounds i32, ptr %.val40, i64 %40
  store i32 1, ptr %41, align 4
  %42 = call i32 @Llb_ManModelCheckAig(ptr noundef %0, ptr noundef %1, ptr noundef nonnull %20, ptr noundef nonnull %5) #15
  switch i32 %42, label %43 [
    i32 0, label %.loopexit
    i32 1, label %.preheader.loopexit
  ]

43:                                               ; preds = %37
  %indvars.iv.next = add nsw i64 %indvars.iv, 1
  %lftr.wideiv = trunc i64 %indvars.iv.next to i32
  %exitcond.not = icmp eq i32 %.val, %lftr.wideiv
  br i1 %exitcond.not, label %.critedge, label %37, !llvm.loop !12

.critedge:                                        ; preds = %43
  %44 = icmp eq i32 %42, -1
  br i1 %44, label %.loopexit, label %.preheader

.preheader.loopexit:                              ; preds = %37
  %45 = trunc nsw i64 %indvars.iv to i32
  br label %.preheader

.preheader:                                       ; preds = %.preheader.loopexit, %.critedge
  %.0.lcssa85 = phi i32 [ %.val, %.critedge ], [ %45, %.preheader.loopexit ]
  %46 = load i32, ptr %14, align 8
  %.not69 = icmp slt i32 %.0.lcssa85, %46
  br i1 %.not69, label %.loopexit, label %.lr.ph71

.lr.ph71:                                         ; preds = %.preheader
  %47 = getelementptr i8, ptr %17, i64 8
  %.val37 = load ptr, ptr %47, align 8
  %48 = getelementptr i8, ptr %20, i64 8
  %49 = sext i32 %.0.lcssa85 to i64
  br label %53

50:                                               ; preds = %53
  %indvars.iv.next78 = add nsw i64 %indvars.iv77, -1
  %51 = load i32, ptr %14, align 8
  %52 = sext i32 %51 to i64
  %.not.not = icmp sgt i64 %indvars.iv77, %52
  br i1 %.not.not, label %53, label %.loopexit, !llvm.loop !13

53:                                               ; preds = %.lr.ph71, %50
  %indvars.iv77 = phi i64 [ %49, %.lr.ph71 ], [ %indvars.iv.next78, %50 ]
  %54 = getelementptr inbounds i32, ptr %.val37, i64 %indvars.iv77
  %55 = load i32, ptr %54, align 4
  %.val39 = load ptr, ptr %48, align 8
  %56 = sext i32 %55 to i64
  %57 = getelementptr inbounds i32, ptr %.val39, i64 %56
  store i32 -1, ptr %57, align 4
  %58 = call i32 @Llb_ManModelCheckAig(ptr noundef %0, ptr noundef nonnull %1, ptr noundef nonnull %20, ptr noundef nonnull %5) #15
  %59 = icmp eq i32 %58, 1
  br i1 %59, label %50, label %.loopexit

.loopexit:                                        ; preds = %37, %53, %50, %Vec_IntStartFull.exit, %.preheader, %.critedge
  %.2 = phi i32 [ -1, %.critedge ], [ %42, %.preheader ], [ -1, %Vec_IntStartFull.exit ], [ %58, %53 ], [ 1, %50 ], [ %42, %37 ]
  %60 = load ptr, ptr %5, align 8
  %.not34 = icmp eq ptr %60, null
  br i1 %.not34, label %67, label %61

61:                                               ; preds = %.loopexit
  %62 = getelementptr inbounds nuw i8, ptr %60, i64 736
  %63 = load ptr, ptr %62, align 8
  %.not35 = icmp eq ptr %63, null
  br i1 %.not35, label %65, label %64

64:                                               ; preds = %61
  call void @Cudd_RecursiveDeref(ptr noundef nonnull %60, ptr noundef nonnull %63) #15
  %.pre = load ptr, ptr %5, align 8
  br label %65

65:                                               ; preds = %64, %61
  %66 = phi ptr [ %.pre, %64 ], [ %60, %61 ]
  call void @Extra_StopManager(ptr noundef %66) #15
  br label %67

67:                                               ; preds = %.loopexit, %65
  %68 = getelementptr inbounds nuw i8, ptr %17, i64 8
  %69 = load ptr, ptr %68, align 8
  %.not.i42 = icmp eq ptr %69, null
  br i1 %.not.i42, label %71, label %70

70:                                               ; preds = %67
  call void @free(ptr noundef nonnull %69) #15
  br label %71

71:                                               ; preds = %70, %67
  call void @free(ptr noundef nonnull %17) #15
  %72 = getelementptr inbounds nuw i8, ptr %20, i64 8
  %73 = load ptr, ptr %72, align 8
  %.not.i43 = icmp eq ptr %73, null
  br i1 %.not.i43, label %Vec_IntFreeP.exit47, label %74

74:                                               ; preds = %71
  call void @free(ptr noundef nonnull %73) #15
  br label %Vec_IntFreeP.exit47

Vec_IntFreeP.exit47:                              ; preds = %71, %74
  call void @free(ptr noundef nonnull %20) #15
  %75 = getelementptr inbounds nuw i8, ptr %1, i64 64
  %76 = load i32, ptr %75, align 8
  %.not36 = icmp eq i32 %76, 0
  br i1 %.not36, label %90, label %77

77:                                               ; preds = %Vec_IntFreeP.exit47
  call void @llvm.lifetime.start.p0(i64 16, ptr nonnull %3)
  %78 = call i32 @clock_gettime(i32 noundef 1, ptr noundef nonnull %3) #15
  %79 = icmp slt i32 %78, 0
  br i1 %79, label %Abc_Clock.exit49, label %80

80:                                               ; preds = %77
  %81 = load i64, ptr %3, align 8
  %82 = mul nsw i64 %81, 1000000
  %83 = getelementptr inbounds nuw i8, ptr %3, i64 8
  %84 = load i64, ptr %83, align 8
  %85 = sdiv i64 %84, 1000
  %86 = add nsw i64 %85, %82
  br label %Abc_Clock.exit49

Abc_Clock.exit49:                                 ; preds = %77, %80
  %.0.i48 = phi i64 [ %86, %80 ], [ -1, %77 ]
  call void @llvm.lifetime.end.p0(i64 16, ptr nonnull %3)
  %87 = add i64 %.0.i48, %.0.i.neg
  call void (i32, ptr, ...) @Abc_Print(i32 poison, ptr noundef nonnull @.str.4, ptr noundef nonnull @.str.1)
  %88 = sitofp i64 %87 to double
  %89 = fdiv double %88, 1.000000e+06
  call void (i32, ptr, ...) @Abc_Print(i32 poison, ptr noundef nonnull @.str.5, double noundef %89)
  br label %90

90:                                               ; preds = %Abc_Clock.exit49, %Vec_IntFreeP.exit47
  ret i32 %.2
}